target datalayout = "e-m:e-p270:32:32-p271:32:32-p272:64:64-i64:64-i128:128-f80:128-n8:16:32:64-S128"
target triple = "x86_64-pc-linux-gnu"

%struct.USerializedSet = type { ptr, i32, i32, [8 x i16] }

; Function Attrs: mustprogress nounwind uwtable
define void @uset_setSerializedToOne_77(ptr noundef %0, i32 noundef %1) #3 {
  %3 = alloca ptr, align 8
  %4 = alloca i32, align 4
  store ptr %0, ptr %3, align 8, !tbaa !49
  store i32 %1, ptr %4, align 4, !tbaa !3
  %5 = load ptr, ptr %3, align 8, !tbaa !49
  %6 = icmp eq ptr %5, null
  br i1 %6, label %10, label %7

7:                                                ; preds = %2
  %8 = load i32, ptr %4, align 4, !tbaa !3
  %9 = icmp ugt i32 %8, 1114111
  br i1 %9, label %10, label %11

10:                                               ; preds = %7, %2
  br label %99

11:                                               ; preds = %7
  %12 = load ptr, ptr %3, align 8, !tbaa !49
  %13 = getelementptr inbounds nuw %struct.USerializedSet, ptr %12, i32 0, i32 3
  %14 = getelementptr inbounds [8 x i16], ptr %13, i64 0, i64 0
  %15 = load ptr, ptr %3, align 8, !tbaa !49
  %16 = getelementptr inbounds nuw %struct.USerializedSet, ptr %15, i32 0, i32 0
  store ptr %14, ptr %16, align 8, !tbaa !56
  %17 = load i32, ptr %4, align 4, !tbaa !3
  %18 = icmp slt i32 %17, 65535
  br i1 %18, label %19, label %37

19:                                               ; preds = %11
  %20 = load ptr, ptr %3, align 8, !tbaa !49
  %21 = getelementptr inbounds nuw %struct.USerializedSet, ptr %20, i32 0, i32 2
  store i32 2, ptr %21, align 4, !tbaa !53
  %22 = load ptr, ptr %3, align 8, !tbaa !49
  %23 = getelementptr inbounds nuw %struct.USerializedSet, ptr %22, i32 0, i32 1
  store i32 2, ptr %23, align 8, !tbaa !51
  %24 = load i32, ptr %4, align 4, !tbaa !3
  %25 = trunc i32 %24 to i16
  %26 = load ptr, ptr %3, align 8, !tbaa !49
  %27 = getelementptr inbounds nuw %struct.USerializedSet, ptr %26, i32 0, i32 3
  %28 = getelementptr inbounds [8 x i16], ptr %27, i64 0, i64 0
  store i16 %25, ptr %28, align 8, !tbaa !54
  %29 = load i32, ptr %4, align 4, !tbaa !3
  %30 = trunc i32 %29 to i16
  %31 = zext i16 %30 to i32
  %32 = add nsw i32 %31, 1
  %33 = trunc i32 %32 to i16
  %34 = load ptr, ptr %3, align 8, !tbaa !49
  %35 = getelementptr inbounds nuw %struct.USerializedSet, ptr %34, i32 0, i32 3
  %36 = getelementptr inbounds [8 x i16], ptr %35, i64 0, i64 1
  store i16 %33, ptr %36, align 2, !tbaa !54
  br label %99

37:                                               ; preds = %11
  %38 = load i32, ptr %4, align 4, !tbaa !3
  %39 = icmp eq i32 %38, 65535
  br i1 %39, label %40, label %54

40:                                               ; preds = %37
  %41 = load ptr, ptr %3, align 8, !tbaa !49
  %42 = getelementptr inbounds nuw %struct.USerializedSet, ptr %41, i32 0, i32 1
  store i32 1, ptr %42, align 8, !tbaa !51
  %43 = load ptr, ptr %3, align 8, !tbaa !49
  %44 = getelementptr inbounds nuw %struct.USerializedSet, ptr %43, i32 0, i32 2
  store i32 3, ptr %44, align 4, !tbaa !53
  %45 = load ptr, ptr %3, align 8, !tbaa !49
  %46 = getelementptr inbounds nuw %struct.USerializedSet, ptr %45, i32 0, i32 3
  %47 = getelementptr inbounds [8 x i16], ptr %46, i64 0, i64 0
  store i16 -1, ptr %47, align 8, !tbaa !54
  %48 = load ptr, ptr %3, align 8, !tbaa !49
  %49 = getelementptr inbounds nuw %struct.USerializedSet, ptr %48, i32 0, i32 3
  %50 = getelementptr inbounds [8 x i16], ptr %49, i64 0, i64 1
  store i16 1, ptr %50, align 2, !tbaa !54
  %51 = load ptr, ptr %3, align 8, !tbaa !49
  %52 = getelementptr inbounds nuw %struct.USerializedSet, ptr %51, i32 0, i32 3
  %53 = getelementptr inbounds [8 x i16], ptr %52, i64 0, i64 2
  store i16 0, ptr %53, align 4, !tbaa !54
  br label %98

54:                                               ; preds = %37
  %55 = load i32, ptr %4, align 4, !tbaa !3
  %56 = icmp slt i32 %55, 1114111
  br i1 %56, label %57, label %86

57:                                               ; preds = %54
  %58 = load ptr, ptr %3, align 8, !tbaa !49
  %59 = getelementptr inbounds nuw %struct.USerializedSet, ptr %58, i32 0, i32 1
  store i32 0, ptr %59, align 8, !tbaa !51
  %60 = load ptr, ptr %3, align 8, !tbaa !49
  %61 = getelementptr inbounds nuw %struct.USerializedSet, ptr %60, i32 0, i32 2
  store i32 4, ptr %61, align 4, !tbaa !53
  %62 = load i32, ptr %4, align 4, !tbaa !3
  %63 = ashr i32 %62, 16
  %64 = trunc i32 %63 to i16
  %65 = load ptr, ptr %3, align 8, !tbaa !49
  %66 = getelementptr inbounds nuw %struct.USerializedSet, ptr %65, i32 0, i32 3
  %67 = getelementptr inbounds [8 x i16], ptr %66, i64 0, i64 0
  store i16 %64, ptr %67, align 8, !tbaa !54
  %68 = load i32, ptr %4, align 4, !tbaa !3
  %69 = trunc i32 %68 to i16
  %70 = load ptr, ptr %3, align 8, !tbaa !49
  %71 = getelementptr inbounds nuw %struct.USerializedSet, ptr %70, i32 0, i32 3
  %72 = getelementptr inbounds [8 x i16], ptr %71, i64 0, i64 1
  store i16 %69, ptr %72, align 2, !tbaa !54
  %73 = load i32, ptr %4, align 4, !tbaa !3
  %74 = add nsw i32 %73, 1
  store i32 %74, ptr %4, align 4, !tbaa !3
  %75 = load i32, ptr %4, align 4, !tbaa !3
  %76 = ashr i32 %75, 16
  %77 = trunc i32 %76 to i16
  %78 = load ptr, ptr %3, align 8, !tbaa !49
  %79 = getelementptr inbounds nuw %struct.USerializedSet, ptr %78, i32 0, i32 3
  %80 = getelementptr inbounds [8 x i16], ptr %79, i64 0, i64 2
  store i16 %77, ptr %80, align 4, !tbaa !54
  %81 = load i32, ptr %4, align 4, !tbaa !3
  %82 = trunc i32 %81 to i16
  %83 = load ptr, ptr %3, align 8, !tbaa !49
  %84 = getelementptr inbounds nuw %struct.USerializedSet, ptr %83, i32 0, i32 3
  %85 = getelementptr inbounds [8 x i16], ptr %84, i64 0, i64 3
  store i16 %82, ptr %85, align 2, !tbaa !54
  br label %97

86:                                               ; preds = %54
  %87 = load ptr, ptr %3, align 8, !tbaa !49
  %88 = getelementptr inbounds nuw %struct.USerializedSet, ptr %87, i32 0, i32 1
  store i32 0, ptr %88, align 8, !tbaa !51
  %89 = load ptr, ptr %3, align 8, !tbaa !49
  %90 = getelementptr inbounds nuw %struct.USerializedSet, ptr %89, i32 0, i32 2
  store i32 2, ptr %90, align 4, !tbaa !53
  %91 = load ptr, ptr %3, align 8, !tbaa !49
  %92 = getelementptr inbounds nuw %struct.USerializedSet, ptr %91, i32 0, i32 3
  %93 = getelementptr inbounds [8 x i16], ptr %92, i64 0, i64 0
  store i16 16, ptr %93, align 8, !tbaa !54
  %94 = load ptr, ptr %3, align 8, !tbaa !49
  %95 = getelementptr inbounds nuw %struct.USerializedSet, ptr %94, i32 0, i32 3
  %96 = getelementptr inbounds [8 x i16], ptr %95, i64 0, i64 1
  store i16 -1, ptr %96, align 2, !tbaa !54
  br label %97

97:                                               ; preds = %86, %57
  br label %98

98:                                               ; preds = %97, %40
  br label %99

99:                                               ; preds = %10, %98, %19
  ret void
}