; Function Attrs: mustprogress nofree norecurse nosync nounwind willreturn memory(argmem: write) uwtable
define void @uset_setSerializedToOne_77(ptr noundef %0, i32 noundef %1) local_unnamed_addr #7 {
  %3 = icmp eq ptr %0, null
  %4 = icmp ugt i32 %1, 1114111
  %or.cond = or i1 %3, %4
  br i1 %or.cond, label %38, label %5

5:                                                ; preds = %2
  %6 = getelementptr inbounds nuw i8, ptr %0, i64 16
  store ptr %6, ptr %0, align 8, !tbaa !34
  %7 = icmp samesign ult i32 %1, 65535
  br i1 %7, label %8, label %14

8:                                                ; preds = %5
  %9 = getelementptr inbounds nuw i8, ptr %0, i64 12
  store i32 2, ptr %9, align 4, !tbaa !35
  %10 = getelementptr inbounds nuw i8, ptr %0, i64 8
  store i32 2, ptr %10, align 8, !tbaa !29
  %11 = trunc nuw i32 %1 to i16
  store i16 %11, ptr %6, align 8, !tbaa !32
  %12 = add nuw i16 %11, 1
  %13 = getelementptr inbounds nuw i8, ptr %0, i64 18
  store i16 %12, ptr %13, align 2, !tbaa !32
  br label %38

14:                                               ; preds = %5
  %15 = icmp eq i32 %1, 65535
  br i1 %15, label %16, label %21

16:                                               ; preds = %14
  %17 = getelementptr inbounds nuw i8, ptr %0, i64 8
  store i32 1, ptr %17, align 8, !tbaa !29
  %18 = getelementptr inbounds nuw i8, ptr %0, i64 12
  store i32 3, ptr %18, align 4, !tbaa !35
  store i16 -1, ptr %6, align 8, !tbaa !32
  %19 = getelementptr inbounds nuw i8, ptr %0, i64 18
  store i16 1, ptr %19, align 2, !tbaa !32
  %20 = getelementptr inbounds nuw i8, ptr %0, i64 20
  store i16 0, ptr %20, align 4, !tbaa !32
  br label %38

21:                                               ; preds = %14
  %22 = icmp samesign ult i32 %1, 1114111
  %23 = getelementptr inbounds nuw i8, ptr %0, i64 8
  store i32 0, ptr %23, align 8, !tbaa !29
  %24 = getelementptr inbounds nuw i8, ptr %0, i64 12
  br i1 %22, label %25, label %36

25:                                               ; preds = %21
  store i32 4, ptr %24, align 4, !tbaa !35
  %26 = lshr i32 %1, 16
  %27 = trunc nuw i32 %26 to i16
  store i16 %27, ptr %6, align 8, !tbaa !32
  %28 = trunc i32 %1 to i16
  %29 = getelementptr inbounds nuw i8, ptr %0, i64 18
  store i16 %28, ptr %29, align 2, !tbaa !32
  %30 = add nuw nsw i32 %1, 1
  %31 = lshr i32 %30, 16
  %32 = trunc nuw i32 %31 to i16
  %33 = getelementptr inbounds nuw i8, ptr %0, i64 20
  store i16 %32, ptr %33, align 4, !tbaa !32
  %34 = trunc i32 %30 to i16
  %35 = getelementptr inbounds nuw i8, ptr %0, i64 22
  store i16 %34, ptr %35, align 2, !tbaa !32
  br label %38

36:                                               ; preds = %21
  store i32 2, ptr %24, align 4, !tbaa !35
  store i16 16, ptr %6, align 8, !tbaa !32
  %37 = getelementptr inbounds nuw i8, ptr %0, i64 18
  store i16 -1, ptr %37, align 2, !tbaa !32
  br label %38

38:                                               ; preds = %16, %36, %25, %2, %8
  ret void
}